target datalayout = "e-m:e-p270:32:32-p271:32:32-p272:64:64-i64:64-i128:128-f80:128-n8:16:32:64-S128"
target triple = "x86_64-pc-linux-gnu"

%"class.metaspace::MetaspaceArena" = type { ptr, ptr, %"class.metaspace::MetachunkList", ptr, ptr, ptr }
%"class.metaspace::MetachunkList" = type <{ ptr, %"class.metaspace::AbstractCounter", [4 x i8] }>
%"class.metaspace::AbstractCounter" = type { i32 }
%"class.metaspace::ArenaGrowthPolicy" = type <{ ptr, i32, [4 x i8] }>

; Function Attrs: mustprogress nounwind uwtable
define linkonce_odr hidden noundef i32 @_ZNK9metaspace15AbstractCounterIjE3getEv(ptr noundef nonnull align 4 dereferenceable(4) %0) #1 comdat align 2 {
  %2 = alloca ptr, align 8
  store ptr %0, ptr %2, align 8
  %3 = load ptr, ptr %2, align 8
  %4 = getelementptr inbounds %"class.metaspace::AbstractCounter", ptr %3, i32 0, i32 0
  %5 = load i32, ptr %4, align 4
  ret i32 %5
}

; Function Attrs: mustprogress nounwind uwtable
define linkonce_odr hidden noundef signext i8 @_ZNK9metaspace17ArenaGrowthPolicy17get_level_at_stepEi(ptr noundef nonnull align 8 dereferenceable(12) %0, i32 noundef %1) #1 comdat align 2 {
  %3 = alloca i8, align 1
  %4 = alloca ptr, align 8
  %5 = alloca i32, align 4
  store ptr %0, ptr %4, align 8
  store i32 %1, ptr %5, align 4
  %6 = load ptr, ptr %4, align 8
  %7 = load i32, ptr %5, align 4
  %8 = getelementptr inbounds %"class.metaspace::ArenaGrowthPolicy", ptr %6, i32 0, i32 1
  %9 = load i32, ptr %8, align 8
  %10 = icmp sge i32 %7, %9
  br i1 %10, label %11, label %20

11:                                               ; preds = %2
  %12 = getelementptr inbounds %"class.metaspace::ArenaGrowthPolicy", ptr %6, i32 0, i32 0
  %13 = load ptr, ptr %12, align 8
  %14 = getelementptr inbounds %"class.metaspace::ArenaGrowthPolicy", ptr %6, i32 0, i32 1
  %15 = load i32, ptr %14, align 8
  %16 = sub nsw i32 %15, 1
  %17 = sext i32 %16 to i64
  %18 = getelementptr inbounds i8, ptr %13, i64 %17
  %19 = load i8, ptr %18, align 1
  store i8 %19, ptr %3, align 1
  br label %27

20:                                               ; preds = %2
  %21 = getelementptr inbounds %"class.metaspace::ArenaGrowthPolicy", ptr %6, i32 0, i32 0
  %22 = load ptr, ptr %21, align 8
  %23 = load i32, ptr %5, align 4
  %24 = sext i32 %23 to i64
  %25 = getelementptr inbounds i8, ptr %22, i64 %24
  %26 = load i8, ptr %25, align 1
  store i8 %26, ptr %3, align 1
  br label %27

27:                                               ; preds = %20, %11
  %28 = load i8, ptr %3, align 1
  ret i8 %28
}

; Function Attrs: mustprogress nounwind uwtable
define linkonce_odr hidden noundef i32 @_ZNK9metaspace13MetachunkList5countEv(ptr noundef nonnull align 8 dereferenceable(12) %0) #1 comdat align 2 {
  %2 = alloca ptr, align 8
  store ptr %0, ptr %2, align 8
  %3 = load ptr, ptr %2, align 8
  %4 = getelementptr inbounds %"class.metaspace::MetachunkList", ptr %3, i32 0, i32 1
  %5 = call noundef i32 @_ZNK9metaspace15AbstractCounterIjE3getEv(ptr noundef nonnull align 4 dereferenceable(4) %4)
  ret i32 %5
}

; Function Attrs: mustprogress nounwind uwtable
define hidden noundef signext i8 @_ZNK9metaspace14MetaspaceArena16next_chunk_levelEv(ptr noundef nonnull align 8 dereferenceable(56) %0) #1 align 2 {
  %2 = alloca ptr, align 8
  %3 = alloca i32, align 4
  store ptr %0, ptr %2, align 8
  %4 = load ptr, ptr %2, align 8
  %5 = getelementptr inbounds %"class.metaspace::MetaspaceArena", ptr %4, i32 0, i32 2
  %6 = call noundef i32 @_ZNK9metaspace13MetachunkList5countEv(ptr noundef nonnull align 8 dereferenceable(12) %5)
  store i32 %6, ptr %3, align 4
  %7 = getelementptr inbounds %"class.metaspace::MetaspaceArena", ptr %4, i32 0, i32 1
  %8 = load ptr, ptr %7, align 8
  %9 = load i32, ptr %3, align 4
  %10 = call noundef signext i8 @_ZNK9metaspace17ArenaGrowthPolicy17get_level_at_stepEi(ptr noundef nonnull align 8 dereferenceable(12) %8, i32 noundef %9)
  ret i8 %10
}