; Function Attrs: mustprogress nofree norecurse nosync nounwind willreturn memory(read, inaccessiblemem: none) uwtable
define hidden noundef signext i8 @_ZNK9metaspace14MetaspaceArena16next_chunk_levelEv(ptr nocapture noundef nonnull readonly align 8 dereferenceable(56) %0) local_unnamed_addr #0 align 2 {
  %2 = getelementptr inbounds i8, ptr %0, i64 24
  %3 = load i32, ptr %2, align 8
  %4 = getelementptr inbounds i8, ptr %0, i64 8
  %5 = load ptr, ptr %4, align 8
  %6 = getelementptr inbounds i8, ptr %5, i64 8
  %7 = load i32, ptr %6, align 8
  %.not.i = icmp sgt i32 %7, %3
  %8 = load ptr, ptr %5, align 8
  %9 = sext i32 %7 to i64
  %10 = getelementptr i8, ptr %8, i64 %9
  %11 = getelementptr i8, ptr %10, i64 -1
  %12 = sext i32 %3 to i64
  %13 = getelementptr inbounds i8, ptr %8, i64 %12
  %.0.in.i = select i1 %.not.i, ptr %13, ptr %11
  %.0.i = load i8, ptr %.0.in.i, align 1
  ret i8 %.0.i
}